; Function Attrs: nounwind uwtable
define hidden i32 @psa_aead_abort(ptr noundef %0) local_unnamed_addr #7 {
  %2 = load i32, ptr %0, align 8, !tbaa !68
  switch i32 %2, label %psa_driver_wrapper_aead_abort.exit [
    i32 0, label %6
    i32 1, label %3
  ]

3:                                                ; preds = %1
  %4 = getelementptr inbounds nuw i8, ptr %0, i64 40
  %5 = tail call i32 @mbedtls_psa_aead_abort(ptr noundef nonnull %4) #22
  br label %psa_driver_wrapper_aead_abort.exit

psa_driver_wrapper_aead_abort.exit:               ; preds = %1, %3
  %.0.i = phi i32 [ %5, %3 ], [ -135, %1 ]
  tail call void @llvm.memset.p0.i64(ptr noundef nonnull align 8 dereferenceable(472) %0, i8 0, i64 472, i1 false)
  br label %6

6:                                                ; preds = %1, %psa_driver_wrapper_aead_abort.exit
  %.0 = phi i32 [ %.0.i, %psa_driver_wrapper_aead_abort.exit ], [ %2, %1 ]
  ret i32 %.0
}